target datalayout = "e-m:e-p270:32:32-p271:32:32-p272:64:64-i64:64-i128:128-f80:128-n8:16:32:64-S128"
target triple = "x86_64-pc-linux-gnu"

%struct.t_blocka = type { i32, ptr, i32, ptr, i32, i32 }
%struct.gmx_ana_indexmap_t = type { i32, ptr, ptr, %struct.t_blocka, ptr, %struct.t_blocka, i8 }

@.str.3 = private unnamed_addr constant [129 x i8] c"generated/home/dtcxzyw/WorkSpace/Projects/compilers/llvm-opt-benchmark/bench/gromacs/gromacs/src/gromacs/selection/indexutil.cpp\00", align 1
@.str.29 = private unnamed_addr constant [9 x i8] c"m->mapid\00", align 1
@.str.31 = private unnamed_addr constant [14 x i8] c"m->mapb.index\00", align 1
@.str.32 = private unnamed_addr constant [11 x i8] c"m->b.index\00", align 1
@.str.33 = private unnamed_addr constant [7 x i8] c"m->b.a\00", align 1

; Function Attrs: inlinehint mustprogress uwtable
define internal void @_ZL14gmx_sfree_implIiEvPKcS1_iPT_(ptr noundef %0, ptr noundef %1, i32 noundef %2, ptr noundef %3) #5 {
  %5 = alloca ptr, align 8
  %6 = alloca ptr, align 8
  %7 = alloca i32, align 4
  %8 = alloca ptr, align 8
  store ptr %0, ptr %5, align 8, !tbaa !54
  store ptr %1, ptr %6, align 8, !tbaa !54
  store i32 %2, ptr %7, align 4, !tbaa !114
  store ptr %3, ptr %8, align 8, !tbaa !77
  %9 = load ptr, ptr %5, align 8, !tbaa !54
  %10 = load ptr, ptr %6, align 8, !tbaa !54
  %11 = load i32, ptr %7, align 4, !tbaa !114
  %12 = load ptr, ptr %8, align 8, !tbaa !77
  call void @_Z9save_freePKcS0_iPv(ptr noundef %9, ptr noundef %10, i32 noundef %11, ptr noundef %12)
  ret void
}

; Function Attrs: mustprogress uwtable
define void @_Z27gmx_ana_indexmap_set_staticP18gmx_ana_indexmap_tP8t_blocka(ptr noundef %0, ptr noundef %1) #0 {
  %3 = alloca ptr, align 8
  %4 = alloca ptr, align 8
  store ptr %0, ptr %3, align 8, !tbaa !476
  store ptr %1, ptr %4, align 8, !tbaa !345
  %5 = load ptr, ptr %3, align 8, !tbaa !476
  %6 = getelementptr inbounds nuw %struct.gmx_ana_indexmap_t, ptr %5, i32 0, i32 2
  %7 = load ptr, ptr %6, align 8, !tbaa !481
  call void @_ZL14gmx_sfree_implIiEvPKcS1_iPT_(ptr noundef @.str.29, ptr noundef @.str.3, i32 noundef 1244, ptr noundef %7)
  %8 = load ptr, ptr %3, align 8, !tbaa !476
  %9 = getelementptr inbounds nuw %struct.gmx_ana_indexmap_t, ptr %8, i32 0, i32 3
  %10 = getelementptr inbounds nuw %struct.t_blocka, ptr %9, i32 0, i32 1
  %11 = load ptr, ptr %10, align 8, !tbaa !483
  call void @_ZL14gmx_sfree_implIiEvPKcS1_iPT_(ptr noundef @.str.31, ptr noundef @.str.3, i32 noundef 1245, ptr noundef %11)
  %12 = load ptr, ptr %3, align 8, !tbaa !476
  %13 = getelementptr inbounds nuw %struct.gmx_ana_indexmap_t, ptr %12, i32 0, i32 5
  %14 = getelementptr inbounds nuw %struct.t_blocka, ptr %13, i32 0, i32 1
  %15 = load ptr, ptr %14, align 8, !tbaa !490
  call void @_ZL14gmx_sfree_implIiEvPKcS1_iPT_(ptr noundef @.str.32, ptr noundef @.str.3, i32 noundef 1246, ptr noundef %15)
  %16 = load ptr, ptr %3, align 8, !tbaa !476
  %17 = getelementptr inbounds nuw %struct.gmx_ana_indexmap_t, ptr %16, i32 0, i32 5
  %18 = getelementptr inbounds nuw %struct.t_blocka, ptr %17, i32 0, i32 3
  %19 = load ptr, ptr %18, align 8, !tbaa !492
  call void @_ZL14gmx_sfree_implIiEvPKcS1_iPT_(ptr noundef @.str.33, ptr noundef @.str.3, i32 noundef 1247, ptr noundef %19)
  %20 = load ptr, ptr %3, align 8, !tbaa !476
  %21 = getelementptr inbounds nuw %struct.gmx_ana_indexmap_t, ptr %20, i32 0, i32 3
  %22 = getelementptr inbounds nuw %struct.t_blocka, ptr %21, i32 0, i32 4
  store i32 0, ptr %22, align 8, !tbaa !484
  %23 = load ptr, ptr %3, align 8, !tbaa !476
  %24 = getelementptr inbounds nuw %struct.gmx_ana_indexmap_t, ptr %23, i32 0, i32 3
  %25 = getelementptr inbounds nuw %struct.t_blocka, ptr %24, i32 0, i32 5
  store i32 0, ptr %25, align 4, !tbaa !487
  %26 = load ptr, ptr %3, align 8, !tbaa !476
  %27 = getelementptr inbounds nuw %struct.gmx_ana_indexmap_t, ptr %26, i32 0, i32 5
  %28 = getelementptr inbounds nuw %struct.t_blocka, ptr %27, i32 0, i32 4
  store i32 0, ptr %28, align 8, !tbaa !493
  %29 = load ptr, ptr %3, align 8, !tbaa !476
  %30 = getelementptr inbounds nuw %struct.gmx_ana_indexmap_t, ptr %29, i32 0, i32 5
  %31 = getelementptr inbounds nuw %struct.t_blocka, ptr %30, i32 0, i32 5
  store i32 0, ptr %31, align 4, !tbaa !494
  %32 = load ptr, ptr %3, align 8, !tbaa !476
  %33 = getelementptr inbounds nuw %struct.gmx_ana_indexmap_t, ptr %32, i32 0, i32 4
  %34 = load ptr, ptr %33, align 8, !tbaa !488
  %35 = load ptr, ptr %3, align 8, !tbaa !476
  %36 = getelementptr inbounds nuw %struct.gmx_ana_indexmap_t, ptr %35, i32 0, i32 2
  store ptr %34, ptr %36, align 8, !tbaa !481
  %37 = load ptr, ptr %4, align 8, !tbaa !345
  %38 = getelementptr inbounds nuw %struct.t_blocka, ptr %37, i32 0, i32 1
  %39 = load ptr, ptr %38, align 8, !tbaa !353
  %40 = load ptr, ptr %3, align 8, !tbaa !476
  %41 = getelementptr inbounds nuw %struct.gmx_ana_indexmap_t, ptr %40, i32 0, i32 3
  %42 = getelementptr inbounds nuw %struct.t_blocka, ptr %41, i32 0, i32 1
  store ptr %39, ptr %42, align 8, !tbaa !483
  %43 = load ptr, ptr %4, align 8, !tbaa !345
  %44 = getelementptr inbounds nuw %struct.t_blocka, ptr %43, i32 0, i32 3
  %45 = load ptr, ptr %44, align 8, !tbaa !349
  %46 = load ptr, ptr %3, align 8, !tbaa !476
  %47 = getelementptr inbounds nuw %struct.gmx_ana_indexmap_t, ptr %46, i32 0, i32 3
  %48 = getelementptr inbounds nuw %struct.t_blocka, ptr %47, i32 0, i32 3
  store ptr %45, ptr %48, align 8, !tbaa !486
  %49 = load ptr, ptr %4, align 8, !tbaa !345
  %50 = getelementptr inbounds nuw %struct.t_blocka, ptr %49, i32 0, i32 1
  %51 = load ptr, ptr %50, align 8, !tbaa !353
  %52 = load ptr, ptr %3, align 8, !tbaa !476
  %53 = getelementptr inbounds nuw %struct.gmx_ana_indexmap_t, ptr %52, i32 0, i32 5
  %54 = getelementptr inbounds nuw %struct.t_blocka, ptr %53, i32 0, i32 1
  store ptr %51, ptr %54, align 8, !tbaa !490
  %55 = load ptr, ptr %4, align 8, !tbaa !345
  %56 = getelementptr inbounds nuw %struct.t_blocka, ptr %55, i32 0, i32 3
  %57 = load ptr, ptr %56, align 8, !tbaa !349
  %58 = load ptr, ptr %3, align 8, !tbaa !476
  %59 = getelementptr inbounds nuw %struct.gmx_ana_indexmap_t, ptr %58, i32 0, i32 5
  %60 = getelementptr inbounds nuw %struct.t_blocka, ptr %59, i32 0, i32 3
  store ptr %57, ptr %60, align 8, !tbaa !492
  ret void
}