; Function Attrs: mustprogress uwtable
define void @_Z27gmx_ana_indexmap_set_staticP18gmx_ana_indexmap_tP8t_blocka(ptr noundef captures(none) initializes((48, 64), (104, 112)) %0, ptr noundef readonly captures(none) %1) local_unnamed_addr #0 {
  %3 = getelementptr inbounds nuw i8, ptr %0, i64 16
  %4 = load ptr, ptr %3, align 8, !tbaa !261
  tail call void @_Z9save_freePKcS0_iPv(ptr noundef nonnull @.str.29, ptr noundef nonnull @.str.3, i32 noundef 1244, ptr noundef %4)
  %5 = getelementptr inbounds nuw i8, ptr %0, i64 32
  %6 = load ptr, ptr %5, align 8, !tbaa !251
  tail call void @_Z9save_freePKcS0_iPv(ptr noundef nonnull @.str.31, ptr noundef nonnull @.str.3, i32 noundef 1245, ptr noundef %6)
  %7 = getelementptr inbounds nuw i8, ptr %0, i64 80
  %8 = load ptr, ptr %7, align 8, !tbaa !253
  tail call void @_Z9save_freePKcS0_iPv(ptr noundef nonnull @.str.32, ptr noundef nonnull @.str.3, i32 noundef 1246, ptr noundef %8)
  %9 = getelementptr inbounds nuw i8, ptr %0, i64 96
  %10 = load ptr, ptr %9, align 8, !tbaa !264
  tail call void @_Z9save_freePKcS0_iPv(ptr noundef nonnull @.str.33, ptr noundef nonnull @.str.3, i32 noundef 1247, ptr noundef %10)
  %11 = getelementptr inbounds nuw i8, ptr %0, i64 56
  store i32 0, ptr %11, align 8, !tbaa !256
  %12 = getelementptr inbounds nuw i8, ptr %0, i64 60
  store i32 0, ptr %12, align 4, !tbaa !270
  %13 = getelementptr inbounds nuw i8, ptr %0, i64 104
  store i32 0, ptr %13, align 8, !tbaa !257
  %14 = getelementptr inbounds nuw i8, ptr %0, i64 108
  store i32 0, ptr %14, align 4, !tbaa !258
  %15 = getelementptr inbounds nuw i8, ptr %0, i64 64
  %16 = load ptr, ptr %15, align 8, !tbaa !262
  store ptr %16, ptr %3, align 8, !tbaa !261
  %17 = getelementptr inbounds nuw i8, ptr %1, i64 8
  %18 = load ptr, ptr %17, align 8, !tbaa !206
  store ptr %18, ptr %5, align 8, !tbaa !251
  %19 = getelementptr inbounds nuw i8, ptr %1, i64 24
  %20 = load ptr, ptr %19, align 8, !tbaa !142
  %21 = getelementptr inbounds nuw i8, ptr %0, i64 48
  store ptr %20, ptr %21, align 8, !tbaa !266
  store ptr %18, ptr %7, align 8, !tbaa !253
  store ptr %20, ptr %9, align 8, !tbaa !264
  ret void
}